; Function Attrs: mustprogress uwtable
define void @_ZN7openvdb5v11_06points26StringAttributeWriteHandle3setEjjRKNSt7__cxx1112basic_stringIcSt11char_traitsIcESaIcEEE(ptr noundef nonnull align 8 dereferenceable(224) %this, i32 noundef %n, i32 noundef %m, ptr noundef nonnull align 8 dereferenceable(32) %name) local_unnamed_addr #3 align 2 {
entry:
  %call = tail call noundef i32 @_ZNK7openvdb5v11_06points26StringAttributeWriteHandle8getIndexERKNSt7__cxx1112basic_stringIcSt11char_traitsIcESaIcEEE(ptr noundef nonnull align 8 dereferenceable(224) %this, ptr noundef nonnull align 8 dereferenceable(32) %name)
  %mStrideOrTotalSize.i.i = getelementptr inbounds i8, ptr %this, i64 208
  %0 = load i32, ptr %mStrideOrTotalSize.i.i, align 8
  %mul.i.i = mul i32 %0, %n
  %add.i.i = add i32 %mul.i.i, %m
  %mArray.i.i = getelementptr inbounds i8, ptr %this, i64 152
  %1 = load ptr, ptr %mArray.i.i, align 8
  %mData.i.i.i.i.i = getelementptr inbounds i8, ptr %1, i64 24
  %2 = load ptr, ptr %mData.i.i.i.i.i, align 8
  %mIsUniform.i.i.i.i = getelementptr inbounds i8, ptr %1, i64 8
  %3 = load i8, ptr %mIsUniform.i.i.i.i, align 8
  %4 = and i8 %3, 1
  %tobool.not.i.i.i.i = icmp eq i8 %4, 0
  %5 = zext i32 %add.i.i to i64
  %idxprom.i.i.i.i = select i1 %tobool.not.i.i.i.i, i64 %5, i64 0
  %arrayidx.i.i.i.i = getelementptr inbounds i32, ptr %2, i64 %idxprom.i.i.i.i
  store i32 %call, ptr %arrayidx.i.i.i.i, align 4
  ret void
}